; Function Attrs: nounwind uwtable
define internal ptr @queuesmod_release(ptr noundef %0, ptr noundef %1, ptr noundef %2) #0 {
  %4 = alloca %struct.idarg_int64_converter_data, align 8
  call void @llvm.lifetime.start.p0(i64 16, ptr nonnull %4) #6
  call void @llvm.memset.p0.i64(ptr noundef nonnull align 8 dereferenceable(16) %4, i8 0, i64 16, i1 false)
  %5 = call i32 (ptr, ptr, ptr, ptr, ...) @PyArg_ParseTupleAndKeywords(ptr noundef %1, ptr noundef %2, ptr noundef nonnull @.str.42, ptr noundef nonnull @queuesmod_release.kwlist, ptr noundef nonnull @qidarg_converter, ptr noundef nonnull %4) #6
  %.not = icmp eq i32 %5, 0
  br i1 %.not, label %11, label %6

6:                                                ; preds = %3
  %7 = getelementptr inbounds nuw i8, ptr %4, i64 8
  %8 = load i64, ptr %7, align 8, !tbaa !43
  %9 = call fastcc i32 @_queues_decref(i64 noundef %8)
  %10 = call fastcc i32 @handle_queue_error(i32 noundef %9, ptr noundef %0, i64 noundef %8)
  %.not6 = icmp eq i32 %10, 0
  %_Py_NoneStruct. = select i1 %.not6, ptr @_Py_NoneStruct, ptr null
  br label %11

11:                                               ; preds = %3, %6
  %.0 = phi ptr [ %_Py_NoneStruct., %6 ], [ null, %3 ]
  call void @llvm.lifetime.end.p0(i64 16, ptr nonnull %4) #6
  ret ptr %.0
}